; Function Attrs: mustprogress nounwind uwtable
define hidden noundef ptr @_ZNK10JavaThread17vthread_or_threadEv(ptr nocapture noundef nonnull readonly align 8 dereferenceable(1800) %0) local_unnamed_addr #0 align 2 {
  %2 = getelementptr inbounds i8, ptr %0, i64 904
  %3 = load ptr, ptr %2, align 8
  %4 = icmp eq ptr %3, null
  br i1 %4, label %_ZNK10JavaThread7vthreadEv.exit.thread, label %_ZNK10JavaThread7vthreadEv.exit

_ZNK10JavaThread7vthreadEv.exit:                  ; preds = %1
  %5 = load ptr, ptr @_ZN14AccessInternal15RuntimeDispatchILm548932EP7oopDescLNS_11BarrierTypeE2EE10_load_funcE, align 8
  %6 = tail call noundef ptr %5(ptr noundef nonnull %3) #21
  %7 = icmp eq ptr %6, null
  br i1 %7, label %_ZNK10JavaThread7vthreadEv.exit.thread, label %_ZNK10JavaThread9threadObjEv.exit

_ZNK10JavaThread7vthreadEv.exit.thread:           ; preds = %1, %_ZNK10JavaThread7vthreadEv.exit
  %8 = getelementptr inbounds i8, ptr %0, i64 896
  %9 = load ptr, ptr %8, align 8
  %10 = icmp eq ptr %9, null
  br i1 %10, label %_ZNK10JavaThread9threadObjEv.exit, label %11

11:                                               ; preds = %_ZNK10JavaThread7vthreadEv.exit.thread
  %12 = load ptr, ptr @_ZN14AccessInternal15RuntimeDispatchILm548932EP7oopDescLNS_11BarrierTypeE2EE10_load_funcE, align 8
  %13 = tail call noundef ptr %12(ptr noundef nonnull %9) #21
  br label %_ZNK10JavaThread9threadObjEv.exit

_ZNK10JavaThread9threadObjEv.exit:                ; preds = %11, %_ZNK10JavaThread7vthreadEv.exit.thread, %_ZNK10JavaThread7vthreadEv.exit
  %.0 = phi ptr [ %6, %_ZNK10JavaThread7vthreadEv.exit ], [ %13, %11 ], [ null, %_ZNK10JavaThread7vthreadEv.exit.thread ]
  ret ptr %.0
}